target datalayout = "e-m:e-p270:32:32-p271:32:32-p272:64:64-i64:64-i128:128-f80:128-n8:16:32:64-S128"
target triple = "x86_64-pc-linux-gnu"

%class.Symbol = type { i32, i16, [2 x i8] }

@_ZL9_alt_hash = internal global i8 0, align 1
@_ZL20_lookup_shared_first = internal thread_local global i8 0, align 1
@_ZL14_alt_hash_seed = internal global i64 0, align 8

; Function Attrs: mustprogress nounwind uwtable
define hidden noundef ptr @_ZN11SymbolTable14lookup_dynamicEPKcij(ptr noundef %0, i32 noundef %1, i32 noundef %2) #1 align 2 {
  %4 = alloca ptr, align 8
  %5 = alloca i32, align 4
  %6 = alloca i32, align 4
  %7 = alloca ptr, align 8
  store ptr %0, ptr %4, align 8
  store i32 %1, ptr %5, align 4
  store i32 %2, ptr %6, align 4
  %8 = load ptr, ptr %4, align 8
  %9 = load i32, ptr %5, align 4
  %10 = load i32, ptr %6, align 4
  %11 = zext i32 %10 to i64
  %12 = call noundef ptr @_ZN11SymbolTable9do_lookupEPKcim(ptr noundef %8, i32 noundef %9, i64 noundef %11)
  store ptr %12, ptr %7, align 8
  %13 = load ptr, ptr %7, align 8
  ret ptr %13
}

; Function Attrs: mustprogress nounwind uwtable
define linkonce_odr hidden noundef i32 @_ZN16java_lang_String9hash_codeEPKai(ptr noundef %0, i32 noundef %1) #1 comdat align 2 {
  %3 = alloca ptr, align 8
  %4 = alloca i32, align 4
  %5 = alloca i32, align 4
  store ptr %0, ptr %3, align 8
  store i32 %1, ptr %4, align 4
  store i32 0, ptr %5, align 4
  br label %6

6:                                                ; preds = %10, %2
  %7 = load i32, ptr %4, align 4
  %8 = add nsw i32 %7, -1
  store i32 %8, ptr %4, align 4
  %9 = icmp sgt i32 %7, 0
  br i1 %9, label %10, label %20

10:                                               ; preds = %6
  %11 = load i32, ptr %5, align 4
  %12 = mul i32 31, %11
  %13 = load ptr, ptr %3, align 8
  %14 = load i8, ptr %13, align 1
  %15 = sext i8 %14 to i32
  %16 = and i32 %15, 255
  %17 = add i32 %12, %16
  store i32 %17, ptr %5, align 4
  %18 = load ptr, ptr %3, align 8
  %19 = getelementptr inbounds i8, ptr %18, i32 1
  store ptr %19, ptr %3, align 8
  br label %6, !llvm.loop !23

20:                                               ; preds = %6
  %21 = load i32, ptr %5, align 4
  ret i32 %21
}

; Function Attrs: mustprogress nounwind uwtable
define hidden noundef ptr @_ZN11SymbolTable13lookup_commonEPKcij(ptr noundef %0, i32 noundef %1, i32 noundef %2) #1 align 2 {
  %4 = alloca ptr, align 8
  %5 = alloca i32, align 4
  %6 = alloca i32, align 4
  %7 = alloca ptr, align 8
  store ptr %0, ptr %4, align 8
  store i32 %1, ptr %5, align 4
  store i32 %2, ptr %6, align 4
  %8 = call align 1 ptr @llvm.threadlocal.address.p0(ptr align 1 @_ZL20_lookup_shared_first)
  %9 = load i8, ptr %8, align 1
  %10 = trunc i8 %9 to i1
  br i1 %10, label %11, label %25

11:                                               ; preds = %3
  %12 = load ptr, ptr %4, align 8
  %13 = load i32, ptr %5, align 4
  %14 = load i32, ptr %6, align 4
  %15 = call noundef ptr @_ZN11SymbolTable13lookup_sharedEPKcij(ptr noundef %12, i32 noundef %13, i32 noundef %14)
  store ptr %15, ptr %7, align 8
  %16 = load ptr, ptr %7, align 8
  %17 = icmp eq ptr %16, null
  br i1 %17, label %18, label %24

18:                                               ; preds = %11
  %19 = call align 1 ptr @llvm.threadlocal.address.p0(ptr align 1 @_ZL20_lookup_shared_first)
  store i8 0, ptr %19, align 1
  %20 = load ptr, ptr %4, align 8
  %21 = load i32, ptr %5, align 4
  %22 = load i32, ptr %6, align 4
  %23 = call noundef ptr @_ZN11SymbolTable14lookup_dynamicEPKcij(ptr noundef %20, i32 noundef %21, i32 noundef %22)
  store ptr %23, ptr %7, align 8
  br label %24

24:                                               ; preds = %18, %11
  br label %43

25:                                               ; preds = %3
  %26 = load ptr, ptr %4, align 8
  %27 = load i32, ptr %5, align 4
  %28 = load i32, ptr %6, align 4
  %29 = call noundef ptr @_ZN11SymbolTable14lookup_dynamicEPKcij(ptr noundef %26, i32 noundef %27, i32 noundef %28)
  store ptr %29, ptr %7, align 8
  %30 = load ptr, ptr %7, align 8
  %31 = icmp eq ptr %30, null
  br i1 %31, label %32, label %42

32:                                               ; preds = %25
  %33 = load ptr, ptr %4, align 8
  %34 = load i32, ptr %5, align 4
  %35 = load i32, ptr %6, align 4
  %36 = call noundef ptr @_ZN11SymbolTable13lookup_sharedEPKcij(ptr noundef %33, i32 noundef %34, i32 noundef %35)
  store ptr %36, ptr %7, align 8
  %37 = load ptr, ptr %7, align 8
  %38 = icmp ne ptr %37, null
  br i1 %38, label %39, label %41

39:                                               ; preds = %32
  %40 = call align 1 ptr @llvm.threadlocal.address.p0(ptr align 1 @_ZL20_lookup_shared_first)
  store i8 1, ptr %40, align 1
  br label %41

41:                                               ; preds = %39, %32
  br label %42

42:                                               ; preds = %41, %25
  br label %43

43:                                               ; preds = %42, %24
  %44 = load ptr, ptr %7, align 8
  ret ptr %44
}

; Function Attrs: mustprogress nounwind uwtable
define internal noundef i32 @_ZL11hash_symbolPKcib(ptr noundef %0, i32 noundef %1, i1 noundef zeroext %2) #1 {
  %4 = alloca ptr, align 8
  %5 = alloca i32, align 4
  %6 = alloca i8, align 1
  store ptr %0, ptr %4, align 8
  store i32 %1, ptr %5, align 4
  %7 = zext i1 %2 to i8
  store i8 %7, ptr %6, align 1
  %8 = load i8, ptr %6, align 1
  %9 = trunc i8 %8 to i1
  br i1 %9, label %10, label %15

10:                                               ; preds = %3
  %11 = load i64, ptr @_ZL14_alt_hash_seed, align 8
  %12 = load ptr, ptr %4, align 8
  %13 = load i32, ptr %5, align 4
  %14 = call noundef i32 @_ZN10AltHashing14halfsiphash_32EmPKvi(i64 noundef %11, ptr noundef %12, i32 noundef %13)
  br label %19

15:                                               ; preds = %3
  %16 = load ptr, ptr %4, align 8
  %17 = load i32, ptr %5, align 4
  %18 = call noundef i32 @_ZN16java_lang_String9hash_codeEPKai(ptr noundef %16, i32 noundef %17)
  br label %19

19:                                               ; preds = %15, %10
  %20 = phi i32 [ %14, %10 ], [ %18, %15 ]
  ret i32 %20
}

; Function Attrs: mustprogress nounwind uwtable
define linkonce_odr hidden noundef ptr @_ZNK6Symbol4baseEv(ptr noundef nonnull align 4 dereferenceable(8) %0) #1 comdat align 2 {
  %2 = alloca ptr, align 8
  store ptr %0, ptr %2, align 8
  %3 = load ptr, ptr %2, align 8
  %4 = getelementptr inbounds %class.Symbol, ptr %3, i32 0, i32 2
  %5 = getelementptr inbounds [2 x i8], ptr %4, i64 0, i64 0
  ret ptr %5
}

; Function Attrs: mustprogress nounwind uwtable
define hidden noundef ptr @_ZN11SymbolTable10new_symbolEPK6Symbolii(ptr noundef %0, i32 noundef %1, i32 noundef %2) #1 align 2 {
  %4 = alloca ptr, align 8
  %5 = alloca i32, align 4
  %6 = alloca i32, align 4
  %7 = alloca ptr, align 8
  %8 = alloca i32, align 4
  %9 = alloca i32, align 4
  %10 = alloca ptr, align 8
  store ptr %0, ptr %4, align 8
  store i32 %1, ptr %5, align 4
  store i32 %2, ptr %6, align 4
  %11 = load ptr, ptr %4, align 8
  %12 = call noundef ptr @_ZNK6Symbol4baseEv(ptr noundef nonnull align 4 dereferenceable(8) %11)
  %13 = load i32, ptr %5, align 4
  %14 = sext i32 %13 to i64
  %15 = getelementptr inbounds i8, ptr %12, i64 %14
  store ptr %15, ptr %7, align 8
  %16 = load i32, ptr %6, align 4
  %17 = load i32, ptr %5, align 4
  %18 = sub nsw i32 %16, %17
  store i32 %18, ptr %8, align 4
  %19 = load ptr, ptr %7, align 8
  %20 = load i32, ptr %8, align 4
  %21 = load volatile i8, ptr @_ZL9_alt_hash, align 1
  %22 = trunc i8 %21 to i1
  %23 = call noundef i32 @_ZL11hash_symbolPKcib(ptr noundef %19, i32 noundef %20, i1 noundef zeroext %22)
  store i32 %23, ptr %9, align 4
  %24 = load ptr, ptr %7, align 8
  %25 = load i32, ptr %8, align 4
  %26 = load i32, ptr %9, align 4
  %27 = call noundef ptr @_ZN11SymbolTable13lookup_commonEPKcij(ptr noundef %24, i32 noundef %25, i32 noundef %26)
  store ptr %27, ptr %10, align 8
  %28 = load ptr, ptr %10, align 8
  %29 = icmp eq ptr %28, null
  br i1 %29, label %30, label %36

30:                                               ; preds = %3
  %31 = load ptr, ptr %7, align 8
  %32 = load i32, ptr %8, align 4
  %33 = load i32, ptr %9, align 4
  %34 = zext i32 %33 to i64
  %35 = call noundef ptr @_ZN11SymbolTable16do_add_if_neededEPKcimb(ptr noundef %31, i32 noundef %32, i64 noundef %34, i1 noundef zeroext false)
  store ptr %35, ptr %10, align 8
  br label %36

36:                                               ; preds = %30, %3
  %37 = load ptr, ptr %10, align 8
  ret ptr %37
}