; Function Attrs: mustprogress nounwind uwtable
define hidden noundef ptr @_ZN11SymbolTable10new_symbolEPK6Symbolii(ptr noundef %0, i32 noundef %1, i32 noundef %2) local_unnamed_addr #0 align 2 {
  %4 = getelementptr inbounds i8, ptr %0, i64 6
  %5 = sext i32 %1 to i64
  %6 = getelementptr inbounds i8, ptr %4, i64 %5
  %7 = sub nsw i32 %2, %1
  %8 = load volatile i8, ptr @_ZL9_alt_hash, align 1
  %9 = trunc i8 %8 to i1
  br i1 %9, label %10, label %13

10:                                               ; preds = %3
  %11 = load i64, ptr @_ZL14_alt_hash_seed, align 8
  %12 = tail call noundef i32 @_ZN10AltHashing14halfsiphash_32EmPKvi(i64 noundef %11, ptr noundef nonnull %6, i32 noundef %7) #18
  br label %_ZL11hash_symbolPKcib.exit

13:                                               ; preds = %3
  %14 = icmp sgt i32 %7, 0
  br i1 %14, label %.lr.ph.i.i, label %_ZL11hash_symbolPKcib.exit

.lr.ph.i.i:                                       ; preds = %13, %.lr.ph.i.i
  %.08.i.i = phi i32 [ %19, %.lr.ph.i.i ], [ 0, %13 ]
  %.047.i.i = phi i32 [ %15, %.lr.ph.i.i ], [ %7, %13 ]
  %.056.i.i = phi ptr [ %20, %.lr.ph.i.i ], [ %6, %13 ]
  %15 = add nsw i32 %.047.i.i, -1
  %16 = mul i32 %.08.i.i, 31
  %17 = load i8, ptr %.056.i.i, align 1
  %18 = zext i8 %17 to i32
  %19 = add i32 %16, %18
  %20 = getelementptr inbounds i8, ptr %.056.i.i, i64 1
  %21 = icmp ugt i32 %.047.i.i, 1
  br i1 %21, label %.lr.ph.i.i, label %_ZL11hash_symbolPKcib.exit, !llvm.loop !18

_ZL11hash_symbolPKcib.exit:                       ; preds = %.lr.ph.i.i, %10, %13
  %22 = phi i32 [ %12, %10 ], [ 0, %13 ], [ %19, %.lr.ph.i.i ]
  %23 = tail call align 1 ptr @llvm.threadlocal.address.p0(ptr align 1 @_ZL20_lookup_shared_first)
  %24 = load i8, ptr %23, align 1
  %25 = trunc i8 %24 to i1
  br i1 %25, label %26, label %29

26:                                               ; preds = %_ZL11hash_symbolPKcib.exit
  %27 = tail call noundef ptr @_ZN11SymbolTable13lookup_sharedEPKcij(ptr noundef nonnull readonly %6, i32 noundef %7, i32 noundef %22)
  %28 = icmp eq ptr %27, null
  br i1 %28, label %_ZN11SymbolTable13lookup_commonEPKcij.exit, label %_ZN11SymbolTable13lookup_commonEPKcij.exit.thread

29:                                               ; preds = %_ZL11hash_symbolPKcib.exit
  %30 = zext i32 %22 to i64
  %31 = tail call noundef ptr @_ZN11SymbolTable9do_lookupEPKcim(ptr noundef nonnull readonly %6, i32 noundef %7, i64 noundef %30)
  %32 = icmp eq ptr %31, null
  br i1 %32, label %33, label %_ZN11SymbolTable13lookup_commonEPKcij.exit.thread

33:                                               ; preds = %29
  %34 = tail call noundef ptr @_ZN11SymbolTable13lookup_sharedEPKcij(ptr noundef nonnull readonly %6, i32 noundef %7, i32 noundef %22)
  %.not.i = icmp eq ptr %34, null
  br i1 %.not.i, label %_ZN11SymbolTable13lookup_commonEPKcij.exit.thread15, label %35

35:                                               ; preds = %33
  store i8 1, ptr %23, align 1
  br label %_ZN11SymbolTable13lookup_commonEPKcij.exit.thread

_ZN11SymbolTable13lookup_commonEPKcij.exit:       ; preds = %26
  store i8 0, ptr %23, align 1
  %36 = zext i32 %22 to i64
  %37 = tail call noundef ptr @_ZN11SymbolTable9do_lookupEPKcim(ptr noundef nonnull readonly %6, i32 noundef %7, i64 noundef %36)
  %38 = icmp eq ptr %37, null
  br i1 %38, label %_ZN11SymbolTable13lookup_commonEPKcij.exit.thread15, label %_ZN11SymbolTable13lookup_commonEPKcij.exit.thread

_ZN11SymbolTable13lookup_commonEPKcij.exit.thread15: ; preds = %33, %_ZN11SymbolTable13lookup_commonEPKcij.exit
  %.pre-phi = phi i64 [ %30, %33 ], [ %36, %_ZN11SymbolTable13lookup_commonEPKcij.exit ]
  %39 = tail call noundef ptr @_ZN11SymbolTable16do_add_if_neededEPKcimb(ptr noundef nonnull %6, i32 noundef %7, i64 noundef %.pre-phi, i1 noundef zeroext false)
  br label %_ZN11SymbolTable13lookup_commonEPKcij.exit.thread

_ZN11SymbolTable13lookup_commonEPKcij.exit.thread: ; preds = %29, %35, %26, %_ZN11SymbolTable13lookup_commonEPKcij.exit.thread15, %_ZN11SymbolTable13lookup_commonEPKcij.exit
  %.0 = phi ptr [ %39, %_ZN11SymbolTable13lookup_commonEPKcij.exit.thread15 ], [ %37, %_ZN11SymbolTable13lookup_commonEPKcij.exit ], [ %31, %29 ], [ %34, %35 ], [ %27, %26 ]
  ret ptr %.0
}